(lp0
(S'cppflags'
p1
ccopy_reg
_reconstructor
p2
(cino.utils
SpaceList
p3
c__builtin__
list
p4
(lp5
S'-mmcu=atmega328p'
p6
aS'-DF_CPU=8000000L'
p7
aS'-DARDUINO=100'
p8
aS'-I/usr/share/arduino/hardware/arduino/cores/arduino'
p9
aS'-ffunction-sections'
p10
aS'-fdata-sections'
p11
aS'-g'
p12
aS'-Os'
p13
aS'-w'
p14
aS'-I/usr/share/arduino/hardware/arduino/variants/standard'
p15
atp16
Rp17
tp18
a(S'version.txt'
p19
S'/usr/share/arduino/lib/version.txt'
p20
tp21
a(S'used_libs'
p22
(lp23
tp24
a(S'cc'
p25
S'/usr/bin/avr-gcc'
p26
tp27
a(S'make'
p28
S'/usr/bin/make'
p29
tp30
a(S'build_dir'
p31
S'.build/pro328'
p32
tp33
a(S'arduino_core_dir'
p34
S'/usr/share/arduino/hardware/arduino/cores/arduino'
p35
tp36
a(S'boards.txt'
p37
S'/usr/share/arduino/hardware/arduino/boards.txt'
p38
tp39
a(S'cxxflags'
p40
g2
(g3
g4
(lp41
S'-fno-exceptions'
p42
atp43
Rp44
tp45
a(S'arduino_variants_dir'
p46
S'/usr/share/arduino/hardware/arduino/variants'
p47
tp48
a(S'deps'
p49
g2
(g3
g4
(lp50
S'.build/pro328/src/dependencies.d'
p51
atp52
Rp53
tp54
a(S'ar'
p55
S'/usr/bin/avr-ar'
p56
tp57
a(S'names'
p58
(dp59
S'cpp'
p60
S'%s.cpp'
p61
sS'obj'
p62
S'%s.o'
p63
sg49
S'%s.d'
p64
sS'lib'
p65
S'lib%s.a'
p66
stp67
a(S'cflags'
p68
g2
(g3
g4
(lp69
tp70
Rp71
tp72
a(S'ldflags'
p73
g2
(g3
g4
(lp74
g6
aS'-Wl,-Os'
p75
aS'-Wl,--gc-sections'
p76
atp77
Rp78
tp79
a(S'arduino_libraries_dir'
p80
S'/usr/share/arduino/libraries'
p81
tp82
a(S'arduino_lib_version'
p83
g2
(cino.environment
Version
p84
c__builtin__
tuple
p85
(I1
I0
I0
tp86
tp87
Rp88
tp89
a(S'objcopy'
p90
S'/usr/bin/avr-objcopy'
p91
tp92
a(S'board_models'
p93
cino.environment
BoardModels
p94
((lp95
(lp96
S'uno'
p97
a(dp98
S'build'
p99
(dp100
S'core'
p101
S'arduino'
p102
sS'mcu'
p103
S'atmega328p'
p104
sS'f_cpu'
p105
S'16000000L'
p106
sS'variant'
p107
S'standard'
p108
ssS'bootloader'
p109
(dp110
S'extended_fuses'
p111
S'0x05'
p112
sS'high_fuses'
p113
S'0xde'
p114
sS'low_fuses'
p115
S'0xff'
p116
sS'lock_bits'
p117
S'0x0F'
p118
sS'file'
p119
S'optiboot_atmega328.hex'
p120
sS'path'
p121
S'optiboot'
p122
sS'unlock_bits'
p123
S'0x3F'
p124
ssS'name'
p125
S'Arduino Uno'
p126
sS'upload'
p127
(dp128
S'speed'
p129
S'115200'
p130
sS'maximum_size'
p131
S'32256'
p132
sS'protocol'
p133
S'arduino'
p134
ssaa(lp135
S'atmega328'
p136
a(dp137
S'build'
p138
(dp139
S'core'
p140
S'arduino'
p141
sS'mcu'
p142
S'atmega328p'
p143
sS'f_cpu'
p144
S'16000000L'
p145
sS'variant'
p146
S'standard'
p147
ssS'bootloader'
p148
(dp149
S'extended_fuses'
p150
S'0x05'
p151
sS'high_fuses'
p152
S'0xDA'
p153
sS'low_fuses'
p154
S'0xFF'
p155
sS'lock_bits'
p156
S'0x0F'
p157
sS'file'
p158
S'ATmegaBOOT_168_atmega328.hex'
p159
sS'path'
p160
S'atmega'
p161
sS'unlock_bits'
p162
S'0x3F'
p163
ssS'name'
p164
S'Arduino Duemilanove w/ ATmega328'
p165
sS'upload'
p166
(dp167
S'speed'
p168
S'57600'
p169
sS'maximum_size'
p170
S'30720'
p171
sS'protocol'
p172
S'arduino'
p173
ssaa(lp174
S'diecimila'
p175
a(dp176
S'build'
p177
(dp178
S'core'
p179
S'arduino'
p180
sS'mcu'
p181
S'atmega168'
p182
sS'f_cpu'
p183
S'16000000L'
p184
sS'variant'
p185
S'standard'
p186
ssS'bootloader'
p187
(dp188
S'extended_fuses'
p189
S'0x00'
p190
sS'high_fuses'
p191
S'0xdd'
p192
sS'low_fuses'
p193
S'0xff'
p194
sS'lock_bits'
p195
S'0x0F'
p196
sS'file'
p197
S'ATmegaBOOT_168_diecimila.hex'
p198
sS'path'
p199
S'atmega'
p200
sS'unlock_bits'
p201
S'0x3F'
p202
ssS'name'
p203
S'Arduino Diecimila or Duemilanove w/ ATmega168'
p204
sS'upload'
p205
(dp206
S'speed'
p207
S'19200'
p208
sS'maximum_size'
p209
S'14336'
p210
sS'protocol'
p211
S'arduino'
p212
ssaa(lp213
S'nano328'
p214
a(dp215
S'build'
p216
(dp217
S'core'
p218
S'arduino'
p219
sS'mcu'
p220
S'atmega328p'
p221
sS'f_cpu'
p222
S'16000000L'
p223
sS'variant'
p224
S'eightanaloginputs'
p225
ssS'bootloader'
p226
(dp227
S'extended_fuses'
p228
S'0x05'
p229
sS'high_fuses'
p230
S'0xDA'
p231
sS'low_fuses'
p232
S'0xFF'
p233
sS'lock_bits'
p234
S'0x0F'
p235
sS'file'
p236
S'ATmegaBOOT_168_atmega328.hex'
p237
sS'path'
p238
S'atmega'
p239
sS'unlock_bits'
p240
S'0x3F'
p241
ssS'name'
p242
S'Arduino Nano w/ ATmega328'
p243
sS'upload'
p244
(dp245
S'speed'
p246
S'57600'
p247
sS'maximum_size'
p248
S'30720'
p249
sS'protocol'
p250
S'arduino'
p251
ssaa(lp252
S'nano'
p253
a(dp254
S'build'
p255
(dp256
S'core'
p257
S'arduino'
p258
sS'mcu'
p259
S'atmega168'
p260
sS'f_cpu'
p261
S'16000000L'
p262
sS'variant'
p263
S'eightanaloginputs'
p264
ssS'bootloader'
p265
(dp266
S'extended_fuses'
p267
S'0x00'
p268
sS'high_fuses'
p269
S'0xdd'
p270
sS'low_fuses'
p271
S'0xff'
p272
sS'lock_bits'
p273
S'0x0F'
p274
sS'file'
p275
S'ATmegaBOOT_168_diecimila.hex'
p276
sS'path'
p277
S'atmega'
p278
sS'unlock_bits'
p279
S'0x3F'
p280
ssS'name'
p281
S'Arduino Nano w/ ATmega168'
p282
sS'upload'
p283
(dp284
S'speed'
p285
S'19200'
p286
sS'maximum_size'
p287
S'14336'
p288
sS'protocol'
p289
S'arduino'
p290
ssaa(lp291
S'mega2560'
p292
a(dp293
S'build'
p294
(dp295
S'core'
p296
S'arduino'
p297
sS'mcu'
p298
S'atmega2560'
p299
sS'f_cpu'
p300
S'16000000L'
p301
sS'variant'
p302
S'mega'
p303
ssS'bootloader'
p304
(dp305
S'extended_fuses'
p306
S'0xFD'
p307
sS'high_fuses'
p308
S'0xD8'
p309
sS'low_fuses'
p310
S'0xFF'
p311
sS'lock_bits'
p312
S'0x0F'
p313
sS'file'
p314
S'stk500boot_v2_mega2560.hex'
p315
sS'path'
p316
S'stk500v2'
p317
sS'unlock_bits'
p318
S'0x3F'
p319
ssS'name'
p320
S'Arduino Mega 2560 or Mega ADK'
p321
sS'upload'
p322
(dp323
S'speed'
p324
S'115200'
p325
sS'maximum_size'
p326
S'258048'
p327
sS'protocol'
p328
S'stk500v2'
p329
ssaa(lp330
S'mega'
p331
a(dp332
S'build'
p333
(dp334
S'core'
p335
S'arduino'
p336
sS'mcu'
p337
S'atmega1280'
p338
sS'f_cpu'
p339
S'16000000L'
p340
sS'variant'
p341
S'mega'
p342
ssS'bootloader'
p343
(dp344
S'extended_fuses'
p345
S'0xF5'
p346
sS'high_fuses'
p347
S'0xDA'
p348
sS'low_fuses'
p349
S'0xFF'
p350
sS'lock_bits'
p351
S'0x0F'
p352
sS'file'
p353
S'ATmegaBOOT_168_atmega1280.hex'
p354
sS'path'
p355
S'atmega'
p356
sS'unlock_bits'
p357
S'0x3F'
p358
ssS'name'
p359
S'Arduino Mega (ATmega1280)'
p360
sS'upload'
p361
(dp362
S'speed'
p363
S'57600'
p364
sS'maximum_size'
p365
S'126976'
p366
sS'protocol'
p367
S'arduino'
p368
ssaa(lp369
S'mini328'
p370
a(dp371
S'build'
p372
(dp373
S'core'
p374
S'arduino'
p375
sS'mcu'
p376
S'atmega328p'
p377
sS'f_cpu'
p378
S'16000000L'
p379
sS'variant'
p380
S'eightanaloginputs'
p381
ssS'bootloader'
p382
(dp383
S'extended_fuses'
p384
S'0x05'
p385
sS'high_fuses'
p386
S'0xd8'
p387
sS'low_fuses'
p388
S'0xff'
p389
sS'lock_bits'
p390
S'0x0F'
p391
sS'file'
p392
S'optiboot_atmega328-Mini.hex'
p393
sS'path'
p394
S'optiboot'
p395
sS'unlock_bits'
p396
S'0x3F'
p397
ssS'name'
p398
S'Arduino Mini w/ ATmega328'
p399
sS'upload'
p400
(dp401
S'speed'
p402
S'115200'
p403
sS'maximum_size'
p404
S'28672'
p405
sS'protocol'
p406
S'stk500'
p407
ssaa(lp408
S'mini'
p409
a(dp410
S'build'
p411
(dp412
S'core'
p413
S'arduino'
p414
sS'mcu'
p415
S'atmega168'
p416
sS'f_cpu'
p417
S'16000000L'
p418
sS'variant'
p419
S'eightanaloginputs'
p420
ssS'bootloader'
p421
(dp422
S'extended_fuses'
p423
S'0x00'
p424
sS'high_fuses'
p425
S'0xdd'
p426
sS'low_fuses'
p427
S'0xff'
p428
sS'lock_bits'
p429
S'0x0F'
p430
sS'file'
p431
S'ATmegaBOOT_168_ng.hex'
p432
sS'path'
p433
S'atmega'
p434
sS'unlock_bits'
p435
S'0x3F'
p436
ssS'name'
p437
S'Arduino Mini w/ ATmega168'
p438
sS'upload'
p439
(dp440
S'speed'
p441
S'19200'
p442
sS'maximum_size'
p443
S'14336'
p444
sS'protocol'
p445
S'arduino'
p446
ssaa(lp447
S'ethernet'
p448
a(dp449
S'build'
p450
(dp451
S'f_cpu'
p452
S'16000000L'
p453
sS'mcu'
p454
S'atmega328p'
p455
sS'variant'
p456
S'standard'
p457
sS'core'
p458
S'arduino'
p459
ssS'bootloader'
p460
(dp461
S'extended_fuses'
p462
S'0x05'
p463
sS'high_fuses'
p464
S'0xde'
p465
sS'low_fuses'
p466
S'0xff'
p467
sS'lock_bits'
p468
S'0x0F'
p469
sS'file'
p470
S'optiboot_atmega328.hex'
p471
sS'path'
p472
S'optiboot'
p473
sS'unlock_bits'
p474
S'0x3F'
p475
ssS'name'
p476
S'Arduino Ethernet'
p477
sS'upload'
p478
(dp479
S'speed'
p480
S'115200'
p481
sS'maximum_size'
p482
S'32256'
p483
sS'protocol'
p484
S'arduino'
p485
ssaa(lp486
S'fio'
p487
a(dp488
S'build'
p489
(dp490
S'core'
p491
S'arduino'
p492
sS'mcu'
p493
S'atmega328p'
p494
sS'f_cpu'
p495
S'8000000L'
p496
sS'variant'
p497
S'eightanaloginputs'
p498
ssS'bootloader'
p499
(dp500
S'extended_fuses'
p501
S'0x05'
p502
sS'high_fuses'
p503
S'0xDA'
p504
sS'low_fuses'
p505
S'0xFF'
p506
sS'lock_bits'
p507
S'0x0F'
p508
sS'file'
p509
S'ATmegaBOOT_168_atmega328_pro_8MHz.hex'
p510
sS'path'
p511
S'arduino:atmega'
p512
sS'unlock_bits'
p513
S'0x3F'
p514
ssS'name'
p515
S'Arduino Fio'
p516
sS'upload'
p517
(dp518
S'speed'
p519
S'57600'
p520
sS'maximum_size'
p521
S'30720'
p522
sS'protocol'
p523
S'arduino'
p524
ssaa(lp525
S'bt328'
p526
a(dp527
S'build'
p528
(dp529
S'core'
p530
S'arduino'
p531
sS'mcu'
p532
S'atmega328p'
p533
sS'f_cpu'
p534
S'16000000L'
p535
sS'variant'
p536
S'eightanaloginputs'
p537
ssS'bootloader'
p538
(dp539
S'extended_fuses'
p540
S'0x05'
p541
sS'high_fuses'
p542
S'0xd8'
p543
sS'low_fuses'
p544
S'0xff'
p545
sS'lock_bits'
p546
S'0x0F'
p547
sS'file'
p548
S'ATmegaBOOT_168_atmega328_bt.hex'
p549
sS'path'
p550
S'bt'
p551
sS'unlock_bits'
p552
S'0x3F'
p553
ssS'name'
p554
S'Arduino BT w/ ATmega328'
p555
sS'upload'
p556
(dp557
S'speed'
p558
S'19200'
p559
sS'maximum_size'
p560
S'28672'
p561
sS'protocol'
p562
S'arduino'
p563
sS'disable_flushing'
p564
S'true'
p565
ssaa(lp566
S'bt'
p567
a(dp568
S'build'
p569
(dp570
S'core'
p571
S'arduino'
p572
sS'mcu'
p573
S'atmega168'
p574
sS'f_cpu'
p575
S'16000000L'
p576
sS'variant'
p577
S'eightanaloginputs'
p578
ssS'bootloader'
p579
(dp580
S'extended_fuses'
p581
S'0x00'
p582
sS'high_fuses'
p583
S'0xdd'
p584
sS'low_fuses'
p585
S'0xff'
p586
sS'lock_bits'
p587
S'0x0F'
p588
sS'file'
p589
S'ATmegaBOOT_168.hex'
p590
sS'path'
p591
S'bt'
p592
sS'unlock_bits'
p593
S'0x3F'
p594
ssS'name'
p595
S'Arduino BT w/ ATmega168'
p596
sS'upload'
p597
(dp598
S'speed'
p599
S'19200'
p600
sS'maximum_size'
p601
S'14336'
p602
sS'protocol'
p603
S'arduino'
p604
sS'disable_flushing'
p605
S'true'
p606
ssaa(lp607
S'lilypad328'
p608
a(dp609
S'build'
p610
(dp611
S'core'
p612
S'arduino'
p613
sS'mcu'
p614
S'atmega328p'
p615
sS'f_cpu'
p616
S'8000000L'
p617
sS'variant'
p618
S'standard'
p619
ssS'bootloader'
p620
(dp621
S'extended_fuses'
p622
S'0x05'
p623
sS'high_fuses'
p624
S'0xDA'
p625
sS'low_fuses'
p626
S'0xFF'
p627
sS'lock_bits'
p628
S'0x0F'
p629
sS'file'
p630
S'ATmegaBOOT_168_atmega328_pro_8MHz.hex'
p631
sS'path'
p632
S'atmega'
p633
sS'unlock_bits'
p634
S'0x3F'
p635
ssS'name'
p636
S'LilyPad Arduino w/ ATmega328'
p637
sS'upload'
p638
(dp639
S'speed'
p640
S'57600'
p641
sS'maximum_size'
p642
S'30720'
p643
sS'protocol'
p644
S'arduino'
p645
ssaa(lp646
S'lilypad'
p647
a(dp648
S'build'
p649
(dp650
S'core'
p651
S'arduino'
p652
sS'mcu'
p653
S'atmega168'
p654
sS'f_cpu'
p655
S'8000000L'
p656
sS'variant'
p657
S'standard'
p658
ssS'bootloader'
p659
(dp660
S'extended_fuses'
p661
S'0x00'
p662
sS'high_fuses'
p663
S'0xdd'
p664
sS'low_fuses'
p665
S'0xe2'
p666
sS'lock_bits'
p667
S'0x0F'
p668
sS'file'
p669
S'LilyPadBOOT_168.hex'
p670
sS'path'
p671
S'lilypad'
p672
sS'unlock_bits'
p673
S'0x3F'
p674
ssS'name'
p675
S'LilyPad Arduino w/ ATmega168'
p676
sS'upload'
p677
(dp678
S'speed'
p679
S'19200'
p680
sS'maximum_size'
p681
S'14336'
p682
sS'protocol'
p683
S'arduino'
p684
ssaa(lp685
S'pro5v328'
p686
a(dp687
S'build'
p688
(dp689
S'core'
p690
S'arduino'
p691
sS'mcu'
p692
S'atmega328p'
p693
sS'f_cpu'
p694
S'16000000L'
p695
sS'variant'
p696
S'standard'
p697
ssS'bootloader'
p698
(dp699
S'extended_fuses'
p700
S'0x05'
p701
sS'high_fuses'
p702
S'0xDA'
p703
sS'low_fuses'
p704
S'0xFF'
p705
sS'lock_bits'
p706
S'0x0F'
p707
sS'file'
p708
S'ATmegaBOOT_168_atmega328.hex'
p709
sS'path'
p710
S'atmega'
p711
sS'unlock_bits'
p712
S'0x3F'
p713
ssS'name'
p714
S'Arduino Pro or Pro Mini (5V, 16 MHz) w/ ATmega328'
p715
sS'upload'
p716
(dp717
S'speed'
p718
S'57600'
p719
sS'maximum_size'
p720
S'30720'
p721
sS'protocol'
p722
S'arduino'
p723
ssaa(lp724
S'pro5v'
p725
a(dp726
S'build'
p727
(dp728
S'core'
p729
S'arduino'
p730
sS'mcu'
p731
S'atmega168'
p732
sS'f_cpu'
p733
S'16000000L'
p734
sS'variant'
p735
S'standard'
p736
ssS'bootloader'
p737
(dp738
S'extended_fuses'
p739
S'0x00'
p740
sS'high_fuses'
p741
S'0xdd'
p742
sS'low_fuses'
p743
S'0xff'
p744
sS'lock_bits'
p745
S'0x0F'
p746
sS'file'
p747
S'ATmegaBOOT_168_diecimila.hex'
p748
sS'path'
p749
S'atmega'
p750
sS'unlock_bits'
p751
S'0x3F'
p752
ssS'name'
p753
S'Arduino Pro or Pro Mini (5V, 16 MHz) w/ ATmega168'
p754
sS'upload'
p755
(dp756
S'speed'
p757
S'19200'
p758
sS'maximum_size'
p759
S'14336'
p760
sS'protocol'
p761
S'arduino'
p762
ssaa(lp763
S'pro328'
p764
a(dp765
S'build'
p766
(dp767
S'core'
p768
S'arduino'
p769
sS'mcu'
p770
S'atmega328p'
p771
sS'f_cpu'
p772
S'8000000L'
p773
sS'variant'
p774
S'standard'
p775
ssS'bootloader'
p776
(dp777
S'extended_fuses'
p778
S'0x05'
p779
sS'high_fuses'
p780
S'0xDA'
p781
sS'low_fuses'
p782
S'0xFF'
p783
sS'lock_bits'
p784
S'0x0F'
p785
sS'file'
p786
S'ATmegaBOOT_168_atmega328_pro_8MHz.hex'
p787
sS'path'
p788
S'atmega'
p789
sS'unlock_bits'
p790
S'0x3F'
p791
ssS'name'
p792
S'Arduino Pro or Pro Mini (3.3V, 8 MHz) w/ ATmega328'
p793
sS'upload'
p794
(dp795
S'speed'
p796
S'57600'
p797
sS'maximum_size'
p798
S'30720'
p799
sS'protocol'
p800
S'arduino'
p801
ssaa(lp802
S'pro'
p803
a(dp804
S'build'
p805
(dp806
S'core'
p807
S'arduino'
p808
sS'mcu'
p809
S'atmega168'
p810
sS'f_cpu'
p811
S'8000000L'
p812
sS'variant'
p813
S'standard'
p814
ssS'bootloader'
p815
(dp816
S'extended_fuses'
p817
S'0x00'
p818
sS'high_fuses'
p819
S'0xdd'
p820
sS'low_fuses'
p821
S'0xc6'
p822
sS'lock_bits'
p823
S'0x0F'
p824
sS'file'
p825
S'ATmegaBOOT_168_pro_8MHz.hex'
p826
sS'path'
p827
S'atmega'
p828
sS'unlock_bits'
p829
S'0x3F'
p830
ssS'name'
p831
S'Arduino Pro or Pro Mini (3.3V, 8 MHz) w/ ATmega168'
p832
sS'upload'
p833
(dp834
S'speed'
p835
S'19200'
p836
sS'maximum_size'
p837
S'14336'
p838
sS'protocol'
p839
S'arduino'
p840
ssaa(lp841
S'atmega168'
p842
a(dp843
S'build'
p844
(dp845
S'core'
p846
S'arduino'
p847
sS'mcu'
p848
S'atmega168'
p849
sS'f_cpu'
p850
S'16000000L'
p851
sS'variant'
p852
S'standard'
p853
ssS'bootloader'
p854
(dp855
S'extended_fuses'
p856
S'0x00'
p857
sS'high_fuses'
p858
S'0xdd'
p859
sS'low_fuses'
p860
S'0xff'
p861
sS'lock_bits'
p862
S'0x0F'
p863
sS'file'
p864
S'ATmegaBOOT_168_ng.hex'
p865
sS'path'
p866
S'atmega'
p867
sS'unlock_bits'
p868
S'0x3F'
p869
ssS'name'
p870
S'Arduino NG or older w/ ATmega168'
p871
sS'upload'
p872
(dp873
S'speed'
p874
S'19200'
p875
sS'maximum_size'
p876
S'14336'
p877
sS'protocol'
p878
S'arduino'
p879
ssaa(lp880
S'atmega8'
p881
a(dp882
S'build'
p883
(dp884
S'core'
p885
S'arduino'
p886
sS'mcu'
p887
S'atmega8'
p888
sS'f_cpu'
p889
S'16000000L'
p890
sS'variant'
p891
S'standard'
p892
ssS'bootloader'
p893
(dp894
S'high_fuses'
p895
S'0xca'
p896
sS'low_fuses'
p897
S'0xdf'
p898
sS'lock_bits'
p899
S'0x0F'
p900
sS'file'
p901
S'ATmegaBOOT.hex'
p902
sS'path'
p903
S'atmega8'
p904
sS'unlock_bits'
p905
S'0x3F'
p906
ssS'name'
p907
S'Arduino NG or older w/ ATmega8'
p908
sS'upload'
p909
(dp910
S'speed'
p911
S'19200'
p912
sS'maximum_size'
p913
S'7168'
p914
sS'protocol'
p915
S'arduino'
p916
ssaatp917
Rp918
(dp919
S'default'
p920
S'uno'
p921
sbtp922
a(S'cxx'
p923
S'/usr/bin/avr-g++'
p924
tp925
a.